target datalayout = "e-m:e-p270:32:32-p271:32:32-p272:64:64-i64:64-i128:128-f80:128-n8:16:32:64-S128"
target triple = "x86_64-pc-linux-gnu"

@Abc_NtkFillTruthStore.Truth6 = internal global [6 x i64] [i64 -6148914691236517206, i64 -3689348814741910324, i64 -1085102592571150096, i64 -71777214294589696, i64 -281470681808896, i64 -4294967296], align 16

; Function Attrs: nounwind uwtable
define void @Abc_NtkFillTruthStore(ptr noundef %0) #0 {
  %2 = alloca ptr, align 8
  %3 = alloca i32, align 4
  %4 = alloca i32, align 4
  %5 = alloca i32, align 4
  %6 = alloca i32, align 4
  store ptr %0, ptr %2, align 8, !tbaa !53
  %7 = load ptr, ptr %2, align 8, !tbaa !53
  %8 = getelementptr inbounds [1024 x i64], ptr %7, i64 0
  %9 = getelementptr inbounds [1024 x i64], ptr %8, i64 0, i64 0
  %10 = load i64, ptr %9, align 8, !tbaa !55
  %11 = icmp eq i64 %10, 0
  br i1 %11, label %12, label %73

12:                                               ; preds = %1
  call void @llvm.lifetime.start.p0(i64 4, ptr %3) #11
  store i32 16, ptr %3, align 4, !tbaa !10
  call void @llvm.lifetime.start.p0(i64 4, ptr %4) #11
  store i32 1024, ptr %4, align 4, !tbaa !10
  call void @llvm.lifetime.start.p0(i64 4, ptr %5) #11
  call void @llvm.lifetime.start.p0(i64 4, ptr %6) #11
  store i32 0, ptr %5, align 4, !tbaa !10
  br label %13

13:                                               ; preds = %37, %12
  %14 = load i32, ptr %5, align 4, !tbaa !10
  %15 = icmp slt i32 %14, 6
  br i1 %15, label %16, label %40

16:                                               ; preds = %13
  store i32 0, ptr %6, align 4, !tbaa !10
  br label %17

17:                                               ; preds = %33, %16
  %18 = load i32, ptr %6, align 4, !tbaa !10
  %19 = load i32, ptr %4, align 4, !tbaa !10
  %20 = icmp slt i32 %18, %19
  br i1 %20, label %21, label %36

21:                                               ; preds = %17
  %22 = load i32, ptr %5, align 4, !tbaa !10
  %23 = sext i32 %22 to i64
  %24 = getelementptr inbounds [6 x i64], ptr @Abc_NtkFillTruthStore.Truth6, i64 0, i64 %23
  %25 = load i64, ptr %24, align 8, !tbaa !55
  %26 = load ptr, ptr %2, align 8, !tbaa !53
  %27 = load i32, ptr %5, align 4, !tbaa !10
  %28 = sext i32 %27 to i64
  %29 = getelementptr inbounds [1024 x i64], ptr %26, i64 %28
  %30 = load i32, ptr %6, align 4, !tbaa !10
  %31 = sext i32 %30 to i64
  %32 = getelementptr inbounds [1024 x i64], ptr %29, i64 0, i64 %31
  store i64 %25, ptr %32, align 8, !tbaa !55
  br label %33

33:                                               ; preds = %21
  %34 = load i32, ptr %6, align 4, !tbaa !10
  %35 = add nsw i32 %34, 1
  store i32 %35, ptr %6, align 4, !tbaa !10
  br label %17, !llvm.loop !57

36:                                               ; preds = %17
  br label %37

37:                                               ; preds = %36
  %38 = load i32, ptr %5, align 4, !tbaa !10
  %39 = add nsw i32 %38, 1
  store i32 %39, ptr %5, align 4, !tbaa !10
  br label %13, !llvm.loop !58

40:                                               ; preds = %13
  store i32 6, ptr %5, align 4, !tbaa !10
  br label %41

41:                                               ; preds = %69, %40
  %42 = load i32, ptr %5, align 4, !tbaa !10
  %43 = load i32, ptr %3, align 4, !tbaa !10
  %44 = icmp slt i32 %42, %43
  br i1 %44, label %45, label %72

45:                                               ; preds = %41
  store i32 0, ptr %6, align 4, !tbaa !10
  br label %46

46:                                               ; preds = %65, %45
  %47 = load i32, ptr %6, align 4, !tbaa !10
  %48 = load i32, ptr %4, align 4, !tbaa !10
  %49 = icmp slt i32 %47, %48
  br i1 %49, label %50, label %68

50:                                               ; preds = %46
  %51 = load i32, ptr %6, align 4, !tbaa !10
  %52 = load i32, ptr %5, align 4, !tbaa !10
  %53 = sub nsw i32 %52, 6
  %54 = ashr i32 %51, %53
  %55 = and i32 %54, 1
  %56 = icmp ne i32 %55, 0
  %57 = select i1 %56, i64 -1, i64 0
  %58 = load ptr, ptr %2, align 8, !tbaa !53
  %59 = load i32, ptr %5, align 4, !tbaa !10
  %60 = sext i32 %59 to i64
  %61 = getelementptr inbounds [1024 x i64], ptr %58, i64 %60
  %62 = load i32, ptr %6, align 4, !tbaa !10
  %63 = sext i32 %62 to i64
  %64 = getelementptr inbounds [1024 x i64], ptr %61, i64 0, i64 %63
  store i64 %57, ptr %64, align 8, !tbaa !55
  br label %65

65:                                               ; preds = %50
  %66 = load i32, ptr %6, align 4, !tbaa !10
  %67 = add nsw i32 %66, 1
  store i32 %67, ptr %6, align 4, !tbaa !10
  br label %46, !llvm.loop !59

68:                                               ; preds = %46
  br label %69

69:                                               ; preds = %68
  %70 = load i32, ptr %5, align 4, !tbaa !10
  %71 = add nsw i32 %70, 1
  store i32 %71, ptr %5, align 4, !tbaa !10
  br label %41, !llvm.loop !60

72:                                               ; preds = %41
  call void @llvm.lifetime.end.p0(i64 4, ptr %6) #11
  call void @llvm.lifetime.end.p0(i64 4, ptr %5) #11
  call void @llvm.lifetime.end.p0(i64 4, ptr %4) #11
  call void @llvm.lifetime.end.p0(i64 4, ptr %3) #11
  br label %73

73:                                               ; preds = %72, %1
  ret void
}