; Function Attrs: nofree norecurse nosync nounwind memory(argmem: readwrite) uwtable
define void @Abc_NtkFillTruthStore(ptr noundef captures(none) %0) local_unnamed_addr #4 {
  %2 = load i64, ptr %0, align 8, !tbaa !49
  %3 = icmp eq i64 %2, 0
  br i1 %3, label %.preheader23, label %.loopexit

.preheader23:                                     ; preds = %1, %8
  %indvars.iv30 = phi i64 [ %indvars.iv.next31, %8 ], [ 0, %1 ]
  %4 = getelementptr inbounds nuw [6 x i64], ptr @Abc_NtkFillTruthStore.Truth6, i64 0, i64 %indvars.iv30
  %5 = load i64, ptr %4, align 8, !tbaa !49
  br label %6

6:                                                ; preds = %.preheader23, %6
  %indvars.iv = phi i64 [ 0, %.preheader23 ], [ %indvars.iv.next, %6 ]
  %7 = getelementptr inbounds nuw [1024 x i64], ptr %0, i64 %indvars.iv30, i64 %indvars.iv
  store i64 %5, ptr %7, align 8, !tbaa !49
  %indvars.iv.next = add nuw nsw i64 %indvars.iv, 1
  %exitcond.not = icmp eq i64 %indvars.iv.next, 1024
  br i1 %exitcond.not, label %8, label %6, !llvm.loop !51

8:                                                ; preds = %6
  %indvars.iv.next31 = add nuw nsw i64 %indvars.iv30, 1
  %exitcond33.not = icmp eq i64 %indvars.iv.next31, 6
  br i1 %exitcond33.not, label %.preheader, label %.preheader23, !llvm.loop !52

.preheader:                                       ; preds = %8, %17
  %indvars.iv38 = phi i64 [ %indvars.iv.next39, %17 ], [ 6, %8 ]
  %9 = trunc i64 %indvars.iv38 to i32
  %10 = add i32 %9, -6
  %11 = shl nuw i32 1, %10
  br label %12

12:                                               ; preds = %.preheader, %12
  %indvars.iv34 = phi i64 [ 0, %.preheader ], [ %indvars.iv.next35, %12 ]
  %13 = trunc nuw nsw i64 %indvars.iv34 to i32
  %14 = and i32 %11, %13
  %.not = icmp ne i32 %14, 0
  %15 = sext i1 %.not to i64
  %16 = getelementptr inbounds nuw [1024 x i64], ptr %0, i64 %indvars.iv38, i64 %indvars.iv34
  store i64 %15, ptr %16, align 8, !tbaa !49
  %indvars.iv.next35 = add nuw nsw i64 %indvars.iv34, 1
  %exitcond37.not = icmp eq i64 %indvars.iv.next35, 1024
  br i1 %exitcond37.not, label %17, label %12, !llvm.loop !53

17:                                               ; preds = %12
  %indvars.iv.next39 = add nuw nsw i64 %indvars.iv38, 1
  %exitcond41.not = icmp eq i64 %indvars.iv.next39, 16
  br i1 %exitcond41.not, label %.loopexit, label %.preheader, !llvm.loop !54

.loopexit:                                        ; preds = %17, %1
  ret void
}